target datalayout = "e-m:e-p270:32:32-p271:32:32-p272:64:64-i64:64-i128:128-f80:128-n8:16:32:64-S128"
target triple = "x86_64-pc-linux-gnu"

%class.QString = type { %struct.QArrayDataPointer }
%struct.QArrayDataPointer = type { ptr, ptr, i64 }
%class.ManufDialog = type { %class.WiresharkDialog.base, ptr, ptr, ptr }
%class.WiresharkDialog.base = type <{ %class.GeometryStateDialog, ptr, i8, [7 x i8], %class.QString, %class.QList, i32, i8 }>
%class.GeometryStateDialog = type { %class.QDialog, %class.QString, ptr }
%class.QDialog = type { %class.QWidget }
%class.QWidget = type { %class.QObject, %class.QPaintDevice.base, ptr }
%class.QObject = type { ptr, %class.QScopedPointer }
%class.QScopedPointer = type { ptr }
%class.QPaintDevice.base = type <{ ptr, i16 }>
%class.QList = type { %struct.QArrayDataPointer.0 }
%struct.QArrayDataPointer.0 = type { ptr, ptr, i64 }
%class.Ui_ManufDialog = type { ptr, ptr, ptr, ptr, ptr, ptr, ptr, ptr, ptr, ptr, ptr }

; Function Attrs: mustprogress null_pointer_is_valid sspstrong uwtable
define void @_ZN11ManufDialog11clearFilterEv(ptr noundef align 8 dereferenceable_or_null(168) %0) #0 align 2 {
  %2 = alloca ptr, align 8
  store ptr %0, ptr %2, align 8
  %3 = load ptr, ptr %2, align 8
  %4 = getelementptr inbounds nuw %class.ManufDialog, ptr %3, i32 0, i32 3
  %5 = load ptr, ptr %4, align 8
  call void @_ZN25ManufSortFilterProxyModel11clearFilterEv(ptr noundef align 8 dereferenceable_or_null(56) %5)
  %6 = getelementptr inbounds nuw %class.ManufDialog, ptr %3, i32 0, i32 1
  %7 = load ptr, ptr %6, align 8
  %8 = getelementptr inbounds nuw %class.Ui_ManufDialog, ptr %7, i32 0, i32 7
  %9 = load ptr, ptr %8, align 8
  call void @_ZN9QLineEdit5clearEv(ptr noundef align 8 dereferenceable_or_null(40) %9)
  %10 = getelementptr inbounds nuw %class.ManufDialog, ptr %3, i32 0, i32 1
  %11 = load ptr, ptr %10, align 8
  %12 = getelementptr inbounds nuw %class.Ui_ManufDialog, ptr %11, i32 0, i32 6
  %13 = load ptr, ptr %12, align 8
  call void @_ZN6QLabel5clearEv(ptr noundef align 8 dereferenceable_or_null(40) %13)
  ret void
}