; Function Attrs: mustprogress null_pointer_is_valid sspstrong uwtable
define void @_ZN11ManufDialog11clearFilterEv(ptr noundef readonly align 8 captures(none) dereferenceable_or_null(168) %0) #0 align 2 {
  %2 = getelementptr inbounds nuw i8, ptr %0, i64 160
  %3 = load ptr, ptr %2, align 8
  tail call void @_ZN25ManufSortFilterProxyModel11clearFilterEv(ptr noundef align 8 dereferenceable_or_null(56) %3)
  %4 = getelementptr inbounds nuw i8, ptr %0, i64 144
  %5 = load ptr, ptr %4, align 8
  %6 = getelementptr inbounds nuw i8, ptr %5, i64 56
  %7 = load ptr, ptr %6, align 8
  tail call void @_ZN9QLineEdit5clearEv(ptr noundef align 8 dereferenceable_or_null(40) %7)
  %8 = load ptr, ptr %4, align 8
  %9 = getelementptr inbounds nuw i8, ptr %8, i64 48
  %10 = load ptr, ptr %9, align 8
  tail call void @_ZN6QLabel5clearEv(ptr noundef align 8 dereferenceable_or_null(40) %10)
  ret void
}